target datalayout = "e-m:e-p270:32:32-p271:32:32-p272:64:64-i64:64-i128:128-f80:128-n8:16:32:64-S128"
target triple = "x86_64-pc-linux-gnu"

%struct.crypto_ex_data_st = type { ptr }
%struct.ssl_session_st = type { i32, i32, i32, i32, [48 x i8], i32, [32 x i8], i32, [32 x i8], ptr, ptr, ptr, i64, i64, i64, ptr, %struct.crypto_ex_data_st, ptr, ptr, ptr, ptr, i64, i64, ptr, i64, ptr, [32 x i8], [64 x i8], i32, i32, i8 }
%struct.ssl_st = type { i32, i16, i16, ptr, ptr, ptr, ptr, ptr, i32, i32, ptr, ptr, i32, i32, ptr, ptr, ptr, ptr, ptr, ptr, ptr, ptr, i32, i32, [32 x i8], ptr, ptr, ptr, ptr, ptr, ptr, ptr, i64, %struct.crypto_ex_data_st, ptr, i32, i32, i32, i32, i16, ptr, i32, i64, ptr, ptr, ptr, ptr, ptr, ptr, i32, i32, ptr, ptr, i8, i8, i32 }

; Function Attrs: nounwind uwtable
define hidden ptr @SSL_get_psk_identity(ptr noundef %0) #0 {
  %2 = alloca ptr, align 8
  %3 = alloca ptr, align 8
  store ptr %0, ptr %3, align 8, !tbaa !80
  %4 = load ptr, ptr %3, align 8, !tbaa !80
  %5 = icmp eq ptr %4, null
  br i1 %5, label %11, label %6

6:                                                ; preds = %1
  %7 = load ptr, ptr %3, align 8, !tbaa !80
  %8 = getelementptr inbounds nuw %struct.ssl_st, ptr %7, i32 0, i32 25
  %9 = load ptr, ptr %8, align 8, !tbaa !133
  %10 = icmp eq ptr %9, null
  br i1 %10, label %11, label %12

11:                                               ; preds = %6, %1
  store ptr null, ptr %2, align 8
  br label %18

12:                                               ; preds = %6
  %13 = load ptr, ptr %3, align 8, !tbaa !80
  %14 = getelementptr inbounds nuw %struct.ssl_st, ptr %13, i32 0, i32 25
  %15 = load ptr, ptr %14, align 8, !tbaa !133
  %16 = getelementptr inbounds nuw %struct.ssl_session_st, ptr %15, i32 0, i32 9
  %17 = load ptr, ptr %16, align 8, !tbaa !261
  store ptr %17, ptr %2, align 8
  br label %18

18:                                               ; preds = %12, %11
  %19 = load ptr, ptr %2, align 8
  ret ptr %19
}